target datalayout = "e-m:e-p270:32:32-p271:32:32-p272:64:64-i64:64-i128:128-f80:128-n8:16:32:64-S128"
target triple = "x86_64-pc-linux-gnu"

%"struct.Luau::CodeGen::X64::RegisterX64" = type { i8 }
%"class.Luau::CodeGen::X64::AssemblyBuilderX64" = type <{ %"class.std::vector", %"class.std::vector", %"class.std::__cxx11::basic_string", i8, [3 x i8], i32, i32, [4 x i8], %"class.std::vector.3", %"class.std::vector.8", %"class.Luau::DenseHashMap", %"class.Luau::DenseHashMap.13", i8, [7 x i8], i64, ptr, ptr, i32, [4 x i8] }>
%"class.std::vector" = type { %"struct.std::_Vector_base" }
%"struct.std::_Vector_base" = type { %"struct.std::_Vector_base<unsigned char, std::allocator<unsigned char>>::_Vector_impl" }
%"struct.std::_Vector_base<unsigned char, std::allocator<unsigned char>>::_Vector_impl" = type { %"struct.std::_Vector_base<unsigned char, std::allocator<unsigned char>>::_Vector_impl_data" }
%"struct.std::_Vector_base<unsigned char, std::allocator<unsigned char>>::_Vector_impl_data" = type { ptr, ptr, ptr }
%"class.std::__cxx11::basic_string" = type { %"struct.std::__cxx11::basic_string<char>::_Alloc_hider", i64, %union.anon }
%"struct.std::__cxx11::basic_string<char>::_Alloc_hider" = type { ptr }
%union.anon = type { i64, [8 x i8] }
%"class.std::vector.3" = type { %"struct.std::_Vector_base.4" }
%"struct.std::_Vector_base.4" = type { %"struct.std::_Vector_base<Luau::CodeGen::Label, std::allocator<Luau::CodeGen::Label>>::_Vector_impl" }
%"struct.std::_Vector_base<Luau::CodeGen::Label, std::allocator<Luau::CodeGen::Label>>::_Vector_impl" = type { %"struct.std::_Vector_base<Luau::CodeGen::Label, std::allocator<Luau::CodeGen::Label>>::_Vector_impl_data" }
%"struct.std::_Vector_base<Luau::CodeGen::Label, std::allocator<Luau::CodeGen::Label>>::_Vector_impl_data" = type { ptr, ptr, ptr }
%"class.std::vector.8" = type { %"struct.std::_Vector_base.9" }
%"struct.std::_Vector_base.9" = type { %"struct.std::_Vector_base<unsigned int, std::allocator<unsigned int>>::_Vector_impl" }
%"struct.std::_Vector_base<unsigned int, std::allocator<unsigned int>>::_Vector_impl" = type { %"struct.std::_Vector_base<unsigned int, std::allocator<unsigned int>>::_Vector_impl_data" }
%"struct.std::_Vector_base<unsigned int, std::allocator<unsigned int>>::_Vector_impl_data" = type { ptr, ptr, ptr }
%"class.Luau::DenseHashMap" = type { %"class.Luau::detail::DenseHashTable" }
%"class.Luau::detail::DenseHashTable" = type <{ ptr, i64, i64, i32, [4 x i8] }>
%"class.Luau::DenseHashMap.13" = type { %"class.Luau::detail::DenseHashTable.14" }
%"class.Luau::detail::DenseHashTable.14" = type <{ ptr, i64, i64, i64, [8 x i8] }>
%"struct.Luau::CodeGen::X64::OperandX64" = type { i8, %"struct.Luau::CodeGen::X64::RegisterX64", %"struct.Luau::CodeGen::X64::RegisterX64", i8, i32 }
%"struct.Luau::CodeGen::Label" = type { i32, i32 }

@.str.26 = private unnamed_addr constant [4 x i8] c"lea\00", align 1
@_ZN4Luau7CodeGen3X64L5noregE = internal constant %"struct.Luau::CodeGen::X64::RegisterX64" { i8 -128 }, align 1
@_ZN4Luau7CodeGen3X64L3ripE = internal constant %"struct.Luau::CodeGen::X64::RegisterX64" zeroinitializer, align 1

; Function Attrs: mustprogress uwtable
define dso_local void @_ZN4Luau7CodeGen3X6418AssemblyBuilderX646commitEv(ptr noundef nonnull align 8 dereferenceable(252) %0) #0 align 2 {
  %2 = alloca ptr, align 8
  store ptr %0, ptr %2, align 8, !tbaa !4
  %3 = load ptr, ptr %2, align 8
  %4 = getelementptr inbounds nuw %"class.Luau::CodeGen::X64::AssemblyBuilderX64", ptr %3, i32 0, i32 17
  %5 = load i32, ptr %4, align 8, !tbaa !54
  %6 = add i32 %5, 1
  store i32 %6, ptr %4, align 8, !tbaa !54
  %7 = getelementptr inbounds nuw %"class.Luau::CodeGen::X64::AssemblyBuilderX64", ptr %3, i32 0, i32 16
  %8 = load ptr, ptr %7, align 8, !tbaa !53
  %9 = getelementptr inbounds nuw %"class.Luau::CodeGen::X64::AssemblyBuilderX64", ptr %3, i32 0, i32 15
  %10 = load ptr, ptr %9, align 8, !tbaa !52
  %11 = ptrtoint ptr %8 to i64
  %12 = ptrtoint ptr %10 to i64
  %13 = sub i64 %11, %12
  %14 = trunc i64 %13 to i32
  %15 = icmp ult i32 %14, 16
  br i1 %15, label %16, label %17

16:                                               ; preds = %1
  call void @_ZN4Luau7CodeGen3X6418AssemblyBuilderX646extendEv(ptr noundef nonnull align 8 dereferenceable(252) %3)
  br label %17

17:                                               ; preds = %16, %1
  ret void
}

; Function Attrs: mustprogress nounwind uwtable
define linkonce_odr dso_local void @_ZN4Luau7CodeGen3X6410OperandX64C2ENS1_7SizeX64ENS1_11RegisterX64EhS4_i(ptr noundef nonnull align 4 dereferenceable(8) %0, i8 noundef zeroext %1, i8 %2, i8 noundef zeroext %3, i8 %4, i32 noundef %5) unnamed_addr #1 comdat align 2 {
  %7 = alloca %"struct.Luau::CodeGen::X64::RegisterX64", align 1
  %8 = alloca %"struct.Luau::CodeGen::X64::RegisterX64", align 1
  %9 = alloca ptr, align 8
  %10 = alloca i8, align 1
  %11 = alloca i8, align 1
  %12 = alloca i32, align 4
  %13 = getelementptr inbounds nuw %"struct.Luau::CodeGen::X64::RegisterX64", ptr %7, i32 0, i32 0
  store i8 %2, ptr %13, align 1
  %14 = getelementptr inbounds nuw %"struct.Luau::CodeGen::X64::RegisterX64", ptr %8, i32 0, i32 0
  store i8 %4, ptr %14, align 1
  store ptr %0, ptr %9, align 8, !tbaa !90
  store i8 %1, ptr %10, align 1, !tbaa !85
  store i8 %3, ptr %11, align 1, !tbaa !79
  store i32 %5, ptr %12, align 4, !tbaa !48
  %15 = load ptr, ptr %9, align 8
  %16 = getelementptr inbounds nuw %"struct.Luau::CodeGen::X64::OperandX64", ptr %15, i32 0, i32 0
  store i8 1, ptr %16, align 4, !tbaa !81
  %17 = getelementptr inbounds nuw %"struct.Luau::CodeGen::X64::OperandX64", ptr %15, i32 0, i32 1
  call void @llvm.memcpy.p0.p0.i64(ptr align 1 %17, ptr align 1 %7, i64 1, i1 false), !tbaa.struct !86
  %18 = getelementptr inbounds nuw %"struct.Luau::CodeGen::X64::OperandX64", ptr %15, i32 0, i32 2
  call void @llvm.memcpy.p0.p0.i64(ptr align 2 %18, ptr align 1 %8, i64 1, i1 false), !tbaa.struct !86
  %19 = getelementptr inbounds nuw %"struct.Luau::CodeGen::X64::OperandX64", ptr %15, i32 0, i32 3
  %20 = load i8, ptr %10, align 1, !tbaa !85
  %21 = load i8, ptr %19, align 1
  %22 = and i8 %20, 15
  %23 = and i8 %21, -16
  %24 = or i8 %23, %22
  store i8 %24, ptr %19, align 1
  %25 = getelementptr inbounds nuw %"struct.Luau::CodeGen::X64::OperandX64", ptr %15, i32 0, i32 3
  %26 = load i8, ptr %11, align 1, !tbaa !79
  %27 = load i8, ptr %25, align 1
  %28 = and i8 %26, 15
  %29 = shl i8 %28, 4
  %30 = and i8 %27, 15
  %31 = or i8 %30, %29
  store i8 %31, ptr %25, align 1
  %32 = getelementptr inbounds nuw %"struct.Luau::CodeGen::X64::OperandX64", ptr %15, i32 0, i32 4
  %33 = load i32, ptr %12, align 4, !tbaa !48
  store i32 %33, ptr %32, align 4, !tbaa !87
  ret void
}

; Function Attrs: mustprogress nounwind uwtable
define linkonce_odr dso_local void @_ZN4Luau7CodeGen3X6410OperandX64C2ENS1_11RegisterX64E(ptr noundef nonnull align 4 dereferenceable(8) %0, i8 %1) unnamed_addr #1 comdat align 2 {
  %3 = alloca %"struct.Luau::CodeGen::X64::RegisterX64", align 1
  %4 = alloca ptr, align 8
  %5 = getelementptr inbounds nuw %"struct.Luau::CodeGen::X64::RegisterX64", ptr %3, i32 0, i32 0
  store i8 %1, ptr %5, align 1
  store ptr %0, ptr %4, align 8, !tbaa !90
  %6 = load ptr, ptr %4, align 8
  %7 = getelementptr inbounds nuw %"struct.Luau::CodeGen::X64::OperandX64", ptr %6, i32 0, i32 0
  store i8 0, ptr %7, align 4, !tbaa !81
  %8 = getelementptr inbounds nuw %"struct.Luau::CodeGen::X64::OperandX64", ptr %6, i32 0, i32 1
  call void @llvm.memcpy.p0.p0.i64(ptr align 1 %8, ptr align 1 @_ZN4Luau7CodeGen3X64L5noregE, i64 1, i1 false), !tbaa.struct !86
  %9 = getelementptr inbounds nuw %"struct.Luau::CodeGen::X64::OperandX64", ptr %6, i32 0, i32 2
  call void @llvm.memcpy.p0.p0.i64(ptr align 2 %9, ptr align 1 %3, i64 1, i1 false), !tbaa.struct !86
  %10 = getelementptr inbounds nuw %"struct.Luau::CodeGen::X64::OperandX64", ptr %6, i32 0, i32 3
  %11 = load i8, ptr %10, align 1
  %12 = and i8 %11, -16
  %13 = or i8 %12, 0
  store i8 %13, ptr %10, align 1
  %14 = getelementptr inbounds nuw %"struct.Luau::CodeGen::X64::OperandX64", ptr %6, i32 0, i32 3
  %15 = load i8, ptr %14, align 1
  %16 = and i8 %15, 15
  %17 = or i8 %16, 16
  store i8 %17, ptr %14, align 1
  %18 = getelementptr inbounds nuw %"struct.Luau::CodeGen::X64::OperandX64", ptr %6, i32 0, i32 4
  store i32 0, ptr %18, align 4, !tbaa !87
  ret void
}

; Function Attrs: mustprogress uwtable
define dso_local void @_ZN4Luau7CodeGen3X6418AssemblyBuilderX643leaENS1_11RegisterX64ERNS0_5LabelE(ptr noundef nonnull align 8 dereferenceable(252) %0, i8 %1, ptr noundef nonnull align 4 dereferenceable(8) %2) #0 align 2 {
  %4 = alloca %"struct.Luau::CodeGen::X64::RegisterX64", align 1
  %5 = alloca ptr, align 8
  %6 = alloca ptr, align 8
  %7 = alloca %"struct.Luau::CodeGen::X64::OperandX64", align 4
  %8 = alloca %"struct.Luau::CodeGen::X64::RegisterX64", align 1
  %9 = alloca %"struct.Luau::CodeGen::X64::OperandX64", align 4
  %10 = alloca %"struct.Luau::CodeGen::X64::RegisterX64", align 1
  %11 = alloca %"struct.Luau::CodeGen::X64::RegisterX64", align 1
  %12 = alloca %"struct.Luau::CodeGen::X64::RegisterX64", align 1
  %13 = alloca %"struct.Luau::CodeGen::Label", align 4
  %14 = getelementptr inbounds nuw %"struct.Luau::CodeGen::X64::RegisterX64", ptr %4, i32 0, i32 0
  store i8 %1, ptr %14, align 1
  store ptr %0, ptr %5, align 8, !tbaa !4
  store ptr %2, ptr %6, align 8, !tbaa !94
  %15 = load ptr, ptr %5, align 8
  call void @llvm.memcpy.p0.p0.i64(ptr align 1 %8, ptr align 1 %4, i64 1, i1 false), !tbaa.struct !86
  %16 = getelementptr inbounds nuw %"struct.Luau::CodeGen::X64::RegisterX64", ptr %8, i32 0, i32 0
  %17 = load i8, ptr %16, align 1
  call void @_ZN4Luau7CodeGen3X6410OperandX64C2ENS1_11RegisterX64E(ptr noundef nonnull align 4 dereferenceable(8) %7, i8 %17)
  call void @llvm.memcpy.p0.p0.i64(ptr align 1 %10, ptr align 1 @_ZN4Luau7CodeGen3X64L5noregE, i64 1, i1 false), !tbaa.struct !86
  call void @llvm.memcpy.p0.p0.i64(ptr align 1 %11, ptr align 1 @_ZN4Luau7CodeGen3X64L3ripE, i64 1, i1 false), !tbaa.struct !86
  %18 = getelementptr inbounds nuw %"struct.Luau::CodeGen::X64::RegisterX64", ptr %10, i32 0, i32 0
  %19 = load i8, ptr %18, align 1
  %20 = getelementptr inbounds nuw %"struct.Luau::CodeGen::X64::RegisterX64", ptr %11, i32 0, i32 0
  %21 = load i8, ptr %20, align 1
  call void @_ZN4Luau7CodeGen3X6410OperandX64C2ENS1_7SizeX64ENS1_11RegisterX64EhS4_i(ptr noundef nonnull align 4 dereferenceable(8) %9, i8 noundef zeroext 4, i8 %19, i8 noundef zeroext 1, i8 %21, i32 noundef 0)
  %22 = load i64, ptr %7, align 4
  %23 = load i64, ptr %9, align 4
  call void @_ZN4Luau7CodeGen3X6418AssemblyBuilderX6423placeBinaryRegAndRegMemENS1_10OperandX64ES3_hh(ptr noundef nonnull align 8 dereferenceable(252) %15, i64 %22, i64 %23, i8 noundef zeroext -115, i8 noundef zeroext -115)
  %24 = getelementptr inbounds nuw %"class.Luau::CodeGen::X64::AssemblyBuilderX64", ptr %15, i32 0, i32 15
  %25 = load ptr, ptr %24, align 8, !tbaa !52
  %26 = getelementptr inbounds i8, ptr %25, i64 -4
  store ptr %26, ptr %24, align 8, !tbaa !52
  %27 = load ptr, ptr %6, align 8, !tbaa !94
  call void @_ZN4Luau7CodeGen3X6418AssemblyBuilderX6410placeLabelERNS0_5LabelE(ptr noundef nonnull align 8 dereferenceable(252) %15, ptr noundef nonnull align 4 dereferenceable(8) %27)
  call void @_ZN4Luau7CodeGen3X6418AssemblyBuilderX646commitEv(ptr noundef nonnull align 8 dereferenceable(252) %15)
  %28 = getelementptr inbounds nuw %"class.Luau::CodeGen::X64::AssemblyBuilderX64", ptr %15, i32 0, i32 3
  %29 = load i8, ptr %28, align 8, !tbaa !15, !range !13, !noundef !14
  %30 = trunc i8 %29 to i1
  br i1 %30, label %31, label %36

31:                                               ; preds = %3
  call void @llvm.memcpy.p0.p0.i64(ptr align 1 %12, ptr align 1 %4, i64 1, i1 false), !tbaa.struct !86
  %32 = load ptr, ptr %6, align 8, !tbaa !94
  call void @llvm.memcpy.p0.p0.i64(ptr align 4 %13, ptr align 4 %32, i64 8, i1 false), !tbaa.struct !95
  %33 = getelementptr inbounds nuw %"struct.Luau::CodeGen::X64::RegisterX64", ptr %12, i32 0, i32 0
  %34 = load i8, ptr %33, align 1
  %35 = load i64, ptr %13, align 4
  call void @_ZN4Luau7CodeGen3X6418AssemblyBuilderX643logEPKcNS1_11RegisterX64ENS0_5LabelE(ptr noundef nonnull align 8 dereferenceable(252) %15, ptr noundef @.str.26, i8 %34, i64 %35)
  br label %36

36:                                               ; preds = %31, %3
  ret void
}