; Function Attrs: mustprogress uwtable
define dso_local void @_ZN4Luau7CodeGen3X6418AssemblyBuilderX643leaENS1_11RegisterX64ERNS0_5LabelE(ptr noundef nonnull align 8 dereferenceable(252) %0, i8 %1, ptr noundef nonnull align 4 captures(none) dereferenceable(8) %2) local_unnamed_addr #0 align 2 {
  %.sroa.311.0.insert.ext = zext i8 %1 to i64
  %.sroa.311.0.insert.shift = shl nuw nsw i64 %.sroa.311.0.insert.ext, 16
  %.sroa.210.0.insert.insert = or disjoint i64 %.sroa.311.0.insert.shift, 268468224
  tail call void @_ZN4Luau7CodeGen3X6418AssemblyBuilderX6423placeBinaryRegAndRegMemENS1_10OperandX64ES3_hh(ptr noundef nonnull align 8 dereferenceable(252) %0, i64 %.sroa.210.0.insert.insert, i64 335577089, i8 noundef zeroext -115, i8 noundef zeroext -115)
  %4 = getelementptr inbounds nuw i8, ptr %0, i64 232
  %5 = load ptr, ptr %4, align 8, !tbaa !51
  %6 = getelementptr inbounds i8, ptr %5, i64 -4
  store ptr %6, ptr %4, align 8, !tbaa !51
  tail call void @_ZN4Luau7CodeGen3X6418AssemblyBuilderX6410placeLabelERNS0_5LabelE(ptr noundef nonnull align 8 dereferenceable(252) %0, ptr noundef nonnull align 4 dereferenceable(8) %2)
  %7 = getelementptr inbounds nuw i8, ptr %0, i64 248
  %8 = load i32, ptr %7, align 8, !tbaa !63
  %9 = add i32 %8, 1
  store i32 %9, ptr %7, align 8, !tbaa !63
  %10 = getelementptr inbounds nuw i8, ptr %0, i64 240
  %11 = load ptr, ptr %10, align 8, !tbaa !52
  %12 = load ptr, ptr %4, align 8, !tbaa !51
  %13 = ptrtoint ptr %11 to i64
  %14 = ptrtoint ptr %12 to i64
  %15 = sub i64 %13, %14
  %16 = and i64 %15, 4294967280
  %17 = icmp eq i64 %16, 0
  br i1 %17, label %18, label %_ZN4Luau7CodeGen3X6418AssemblyBuilderX646commitEv.exit

18:                                               ; preds = %3
  tail call void @_ZN4Luau7CodeGen3X6418AssemblyBuilderX646extendEv(ptr noundef nonnull align 8 dereferenceable(252) %0)
  br label %_ZN4Luau7CodeGen3X6418AssemblyBuilderX646commitEv.exit

_ZN4Luau7CodeGen3X6418AssemblyBuilderX646commitEv.exit: ; preds = %3, %18
  %19 = getelementptr inbounds nuw i8, ptr %0, i64 80
  %20 = load i8, ptr %19, align 8, !tbaa !14, !range !61, !noundef !62
  %21 = trunc nuw i8 %20 to i1
  br i1 %21, label %22, label %23

22:                                               ; preds = %_ZN4Luau7CodeGen3X6418AssemblyBuilderX646commitEv.exit
  %.sroa.0.0.copyload = load i64, ptr %2, align 4
  tail call void @_ZN4Luau7CodeGen3X6418AssemblyBuilderX643logEPKcNS1_11RegisterX64ENS0_5LabelE(ptr noundef nonnull align 8 dereferenceable(252) %0, ptr noundef nonnull @.str.26, i8 %1, i64 %.sroa.0.0.copyload)
  br label %23

23:                                               ; preds = %22, %_ZN4Luau7CodeGen3X6418AssemblyBuilderX646commitEv.exit
  ret void
}